target datalayout = "e-m:e-p270:32:32-p271:32:32-p272:64:64-i64:64-f80:128-n8:16:32:64-S128"
target triple = "x86_64-pc-linux-gnu"

@.str = private unnamed_addr constant [3 x i8] c"%s\00", align 1

; Function Attrs: noinline nounwind uwtable
define dso_local void @main() #0 {
  %1 = alloca i32, align 4
  %2 = alloca i32, align 4
  %3 = alloca i32, align 4
  %4 = alloca [100 x i8], align 16
  %5 = alloca [100 x i8], align 16
  %6 = alloca [200 x i8], align 16
  store i32 1, i32* %2, align 4
  %7 = getelementptr inbounds [200 x i8], [200 x i8]* %6, i64 0, i64 0
  %8 = call i32 (i8*, ...) bitcast (i32 (...)* @gets to i32 (i8*, ...)*)(i8* %7)
  %9 = getelementptr inbounds [100 x i8], [100 x i8]* %4, i64 0, i64 0
  %10 = call i32 (i8*, ...) bitcast (i32 (...)* @gets to i32 (i8*, ...)*)(i8* %9)
  %11 = getelementptr inbounds [100 x i8], [100 x i8]* %5, i64 0, i64 0
  %12 = call i32 (i8*, ...) bitcast (i32 (...)* @gets to i32 (i8*, ...)*)(i8* %11)
  store i32 0, i32* %1, align 4
  br label %13

13:                                               ; preds = %186, %0
  %14 = load i32, i32* %1, align 4
  %15 = icmp slt i32 %14, 100
  br i1 %15, label %16, label %189

16:                                               ; preds = %13
  %17 = load i32, i32* %1, align 4
  %18 = sext i32 %17 to i64
  %19 = getelementptr inbounds [200 x i8], [200 x i8]* %6, i64 0, i64 %18
  %20 = load i8, i8* %19, align 1
  %21 = sext i8 %20 to i32
  %22 = icmp eq i32 %21, 71
  br i1 %22, label %23, label %82

23:                                               ; preds = %16
  %24 = load i32, i32* %1, align 4
  %25 = add nsw i32 %24, 1
  %26 = sext i32 %25 to i64
  %27 = getelementptr inbounds [200 x i8], [200 x i8]* %6, i64 0, i64 %26
  %28 = load i8, i8* %27, align 1
  %29 = sext i8 %28 to i32
  %30 = icmp eq i32 %29, 73
  br i1 %30, label %31, label %82

31:                                               ; preds = %23
  %32 = load i32, i32* %1, align 4
  %33 = add nsw i32 %32, 2
  %34 = sext i32 %33 to i64
  %35 = getelementptr inbounds [200 x i8], [200 x i8]* %6, i64 0, i64 %34
  %36 = load i8, i8* %35, align 1
  %37 = sext i8 %36 to i32
  %38 = icmp eq i32 %37, 83
  br i1 %38, label %39, label %82

39:                                               ; preds = %31
  %40 = load i32, i32* %1, align 4
  %41 = sub nsw i32 %40, 1
  %42 = sext i32 %41 to i64
  %43 = getelementptr inbounds [200 x i8], [200 x i8]* %6, i64 0, i64 %42
  %44 = load i8, i8* %43, align 1
  %45 = sext i8 %44 to i32
  %46 = icmp eq i32 %45, 32
  br i1 %46, label %47, label %82

47:                                               ; preds = %39
  %48 = load i32, i32* %2, align 4
  %49 = mul nsw i32 %48, 3
  %50 = add nsw i32 100, %49
  store i32 %50, i32* %3, align 4
  br label %51

51:                                               ; preds = %65, %47
  %52 = load i32, i32* %3, align 4
  %53 = load i32, i32* %1, align 4
  %54 = add nsw i32 %53, 3
  %55 = icmp sge i32 %52, %54
  br i1 %55, label %56, label %68

56:                                               ; preds = %51
  %57 = load i32, i32* %3, align 4
  %58 = sub nsw i32 %57, 3
  %59 = sext i32 %58 to i64
  %60 = getelementptr inbounds [200 x i8], [200 x i8]* %6, i64 0, i64 %59
  %61 = load i8, i8* %60, align 1
  %62 = load i32, i32* %3, align 4
  %63 = sext i32 %62 to i64
  %64 = getelementptr inbounds [200 x i8], [200 x i8]* %6, i64 0, i64 %63
  store i8 %61, i8* %64, align 1
  br label %65

65:                                               ; preds = %56
  %66 = load i32, i32* %3, align 4
  %67 = add nsw i32 %66, -1
  store i32 %67, i32* %3, align 4
  br label %51

68:                                               ; preds = %51
  %69 = load i32, i32* %2, align 4
  %70 = add nsw i32 %69, 1
  store i32 %70, i32* %2, align 4
  %71 = load i32, i32* %1, align 4
  %72 = sext i32 %71 to i64
  %73 = getelementptr inbounds [200 x i8], [200 x i8]* %6, i64 0, i64 %72
  store i8 87, i8* %73, align 1
  %74 = load i32, i32* %1, align 4
  %75 = add nsw i32 %74, 1
  %76 = sext i32 %75 to i64
  %77 = getelementptr inbounds [200 x i8], [200 x i8]* %6, i64 0, i64 %76
  store i8 101, i8* %77, align 1
  %78 = load i32, i32* %1, align 4
  %79 = add nsw i32 %78, 2
  %80 = sext i32 %79 to i64
  %81 = getelementptr inbounds [200 x i8], [200 x i8]* %6, i64 0, i64 %80
  store i8 98, i8* %81, align 1
  br label %82

82:                                               ; preds = %68, %39, %31, %23, %16
  %83 = load i32, i32* %1, align 4
  %84 = sext i32 %83 to i64
  %85 = getelementptr inbounds [200 x i8], [200 x i8]* %6, i64 0, i64 %84
  %86 = load i8, i8* %85, align 1
  %87 = sext i8 %86 to i32
  %88 = icmp eq i32 %87, 89
  br i1 %88, label %89, label %127

89:                                               ; preds = %82
  %90 = load i32, i32* %1, align 4
  %91 = add nsw i32 %90, 1
  %92 = sext i32 %91 to i64
  %93 = getelementptr inbounds [200 x i8], [200 x i8]* %6, i64 0, i64 %92
  %94 = load i8, i8* %93, align 1
  %95 = sext i8 %94 to i32
  %96 = icmp eq i32 %95, 111
  br i1 %96, label %97, label %127

97:                                               ; preds = %89
  %98 = load i32, i32* %1, align 4
  %99 = add nsw i32 %98, 2
  %100 = sext i32 %99 to i64
  %101 = getelementptr inbounds [200 x i8], [200 x i8]* %6, i64 0, i64 %100
  %102 = load i8, i8* %101, align 1
  %103 = sext i8 %102 to i32
  %104 = icmp eq i32 %103, 117
  br i1 %104, label %105, label %127

105:                                              ; preds = %97
  %106 = load i32, i32* %1, align 4
  %107 = sext i32 %106 to i64
  %108 = getelementptr inbounds [200 x i8], [200 x i8]* %6, i64 0, i64 %107
  store i8 73, i8* %108, align 1
  %109 = load i32, i32* %1, align 4
  %110 = add nsw i32 %109, 1
  store i32 %110, i32* %3, align 4
  br label %111

111:                                              ; preds = %123, %105
  %112 = load i32, i32* %3, align 4
  %113 = icmp slt i32 %112, 100
  br i1 %113, label %114, label %126

114:                                              ; preds = %111
  %115 = load i32, i32* %3, align 4
  %116 = add nsw i32 %115, 2
  %117 = sext i32 %116 to i64
  %118 = getelementptr inbounds [200 x i8], [200 x i8]* %6, i64 0, i64 %117
  %119 = load i8, i8* %118, align 1
  %120 = load i32, i32* %3, align 4
  %121 = sext i32 %120 to i64
  %122 = getelementptr inbounds [200 x i8], [200 x i8]* %6, i64 0, i64 %121
  store i8 %119, i8* %122, align 1
  br label %123

123:                                              ; preds = %114
  %124 = load i32, i32* %3, align 4
  %125 = add nsw i32 %124, 1
  store i32 %125, i32* %3, align 4
  br label %111

126:                                              ; preds = %111
  br label %127

127:                                              ; preds = %126, %97, %89, %82
  %128 = load i32, i32* %1, align 4
  %129 = sext i32 %128 to i64
  %130 = getelementptr inbounds [200 x i8], [200 x i8]* %6, i64 0, i64 %129
  %131 = load i8, i8* %130, align 1
  %132 = sext i8 %131 to i32
  %133 = icmp eq i32 %132, 111
  br i1 %133, label %134, label %185

134:                                              ; preds = %127
  %135 = load i32, i32* %1, align 4
  %136 = add nsw i32 %135, 1
  %137 = sext i32 %136 to i64
  %138 = getelementptr inbounds [200 x i8], [200 x i8]* %6, i64 0, i64 %137
  %139 = load i8, i8* %138, align 1
  %140 = sext i8 %139 to i32
  %141 = icmp eq i32 %140, 102
  br i1 %141, label %142, label %185

142:                                              ; preds = %134
  %143 = load i32, i32* %1, align 4
  %144 = sub nsw i32 %143, 1
  %145 = sext i32 %144 to i64
  %146 = getelementptr inbounds [200 x i8], [200 x i8]* %6, i64 0, i64 %145
  %147 = load i8, i8* %146, align 1
  %148 = sext i8 %147 to i32
  %149 = icmp eq i32 %148, 32
  br i1 %149, label %150, label %185

150:                                              ; preds = %142
  %151 = load i32, i32* %2, align 4
  %152 = mul nsw i32 %151, 1
  %153 = add nsw i32 100, %152
  store i32 %153, i32* %3, align 4
  br label %154

154:                                              ; preds = %168, %150
  %155 = load i32, i32* %3, align 4
  %156 = load i32, i32* %1, align 4
  %157 = add nsw i32 %156, 1
  %158 = icmp sge i32 %155, %157
  br i1 %158, label %159, label %171

159:                                              ; preds = %154
  %160 = load i32, i32* %3, align 4
  %161 = sub nsw i32 %160, 1
  %162 = sext i32 %161 to i64
  %163 = getelementptr inbounds [200 x i8], [200 x i8]* %6, i64 0, i64 %162
  %164 = load i8, i8* %163, align 1
  %165 = load i32, i32* %3, align 4
  %166 = sext i32 %165 to i64
  %167 = getelementptr inbounds [200 x i8], [200 x i8]* %6, i64 0, i64 %166
  store i8 %164, i8* %167, align 1
  br label %168

168:                                              ; preds = %159
  %169 = load i32, i32* %3, align 4
  %170 = add nsw i32 %169, -1
  store i32 %170, i32* %3, align 4
  br label %154

171:                                              ; preds = %154
  %172 = load i32, i32* %2, align 4
  %173 = add nsw i32 %172, 1
  store i32 %173, i32* %2, align 4
  %174 = load i32, i32* %1, align 4
  %175 = sext i32 %174 to i64
  %176 = getelementptr inbounds [200 x i8], [200 x i8]* %6, i64 0, i64 %175
  store i8 102, i8* %176, align 1
  %177 = load i32, i32* %1, align 4
  %178 = add nsw i32 %177, 1
  %179 = sext i32 %178 to i64
  %180 = getelementptr inbounds [200 x i8], [200 x i8]* %6, i64 0, i64 %179
  store i8 111, i8* %180, align 1
  %181 = load i32, i32* %1, align 4
  %182 = add nsw i32 %181, 2
  %183 = sext i32 %182 to i64
  %184 = getelementptr inbounds [200 x i8], [200 x i8]* %6, i64 0, i64 %183
  store i8 114, i8* %184, align 1
  br label %185

185:                                              ; preds = %171, %142, %134, %127
  br label %186

186:                                              ; preds = %185
  %187 = load i32, i32* %1, align 4
  %188 = add nsw i32 %187, 1
  store i32 %188, i32* %1, align 4
  br label %13

189:                                              ; preds = %13
  %190 = getelementptr inbounds [200 x i8], [200 x i8]* %6, i64 0, i64 0
  %191 = call i32 (i8*, ...) @printf(i8* getelementptr inbounds ([3 x i8], [3 x i8]* @.str, i64 0, i64 0), i8* %190)
  ret void
}